target datalayout = "e-m:e-p270:32:32-p271:32:32-p272:64:64-i64:64-i128:128-f80:128-n8:16:32:64-S128"
target triple = "x86_64-pc-linux-gnu"

%struct.tMPI_Thread_key_t = type { %struct.tMPI_Atomic, ptr }
%struct.tMPI_Atomic = type { i32, [60 x i8] }
%struct.tmpi_thread = type { ptr, %struct.recv_envelope_list, ptr, %struct.free_envelope_list, %struct.tMPI_Atomic, %struct.tMPI_Event_t, %struct.req_list, ptr, ptr, ptr, ptr, i32, ptr }
%struct.recv_envelope_list = type { ptr, %struct.envelope }
%struct.envelope = type { i32, ptr, ptr, ptr, ptr, i64, ptr, i32, %struct.tMPI_Atomic, i32, ptr, ptr, i32, ptr, ptr, ptr, ptr }
%struct.free_envelope_list = type { ptr, ptr }
%struct.tMPI_Event_t = type { %struct.tMPI_Atomic, i32 }
%struct.req_list = type { ptr, ptr }
%struct.tmpi_req_ = type { i32, ptr, ptr, ptr, i32, i32, i64, i32, ptr, ptr }
%struct.tmpi_status_ = type { i32, i32, i32, i64, i32 }

@id_key = external global %struct.tMPI_Thread_key_t, align 8

; Function Attrs: mustprogress uwtable
define internal void @_ZL19tMPI_Test_multi_reqP11tmpi_threadiPP9tmpi_req_ii(ptr noundef %0, i32 noundef %1, ptr noundef %2, i32 noundef %3, i32 noundef %4) #0 {
  %6 = alloca ptr, align 8
  %7 = alloca i32, align 4
  %8 = alloca ptr, align 8
  %9 = alloca i32, align 4
  %10 = alloca i32, align 4
  %11 = alloca i32, align 4
  %12 = alloca ptr, align 8
  %13 = alloca ptr, align 8
  %14 = alloca ptr, align 8
  store ptr %0, ptr %6, align 8, !tbaa !17
  store i32 %1, ptr %7, align 4, !tbaa !11
  store ptr %2, ptr %8, align 8, !tbaa !3
  store i32 %3, ptr %9, align 4, !tbaa !11
  store i32 %4, ptr %10, align 4, !tbaa !11
  call void @llvm.lifetime.start.p0(i64 4, ptr %11) #4
  call void @llvm.lifetime.start.p0(i64 8, ptr %12) #4
  store ptr null, ptr %12, align 8, !tbaa !21
  call void @llvm.lifetime.start.p0(i64 8, ptr %13) #4
  store ptr null, ptr %13, align 8, !tbaa !21
  store i32 0, ptr %11, align 4, !tbaa !11
  br label %15

15:                                               ; preds = %53, %5
  %16 = load i32, ptr %11, align 4, !tbaa !11
  %17 = load i32, ptr %7, align 4, !tbaa !11
  %18 = icmp slt i32 %16, %17
  br i1 %18, label %19, label %56

19:                                               ; preds = %15
  call void @llvm.lifetime.start.p0(i64 8, ptr %14) #4
  %20 = load ptr, ptr %8, align 8, !tbaa !3
  %21 = load i32, ptr %11, align 4, !tbaa !11
  %22 = sext i32 %21 to i64
  %23 = getelementptr inbounds ptr, ptr %20, i64 %22
  %24 = load ptr, ptr %23, align 8, !tbaa !21
  store ptr %24, ptr %14, align 8, !tbaa !21
  %25 = load ptr, ptr %14, align 8, !tbaa !21
  %26 = icmp ne ptr %25, null
  br i1 %26, label %27, label %52

27:                                               ; preds = %19
  %28 = load ptr, ptr %12, align 8, !tbaa !21
  %29 = icmp ne ptr %28, null
  br i1 %29, label %32, label %30

30:                                               ; preds = %27
  %31 = load ptr, ptr %14, align 8, !tbaa !21
  store ptr %31, ptr %12, align 8, !tbaa !21
  br label %32

32:                                               ; preds = %30, %27
  %33 = load ptr, ptr %13, align 8, !tbaa !21
  %34 = icmp ne ptr %33, null
  br i1 %34, label %41, label %35

35:                                               ; preds = %32
  %36 = load ptr, ptr %14, align 8, !tbaa !21
  store ptr %36, ptr %13, align 8, !tbaa !21
  %37 = load ptr, ptr %13, align 8, !tbaa !21
  %38 = getelementptr inbounds nuw %struct.tmpi_req_, ptr %37, i32 0, i32 8
  store ptr null, ptr %38, align 8, !tbaa !23
  %39 = load ptr, ptr %13, align 8, !tbaa !21
  %40 = getelementptr inbounds nuw %struct.tmpi_req_, ptr %39, i32 0, i32 9
  store ptr null, ptr %40, align 8, !tbaa !28
  br label %51

41:                                               ; preds = %32
  %42 = load ptr, ptr %14, align 8, !tbaa !21
  %43 = getelementptr inbounds nuw %struct.tmpi_req_, ptr %42, i32 0, i32 8
  store ptr null, ptr %43, align 8, !tbaa !23
  %44 = load ptr, ptr %13, align 8, !tbaa !21
  %45 = load ptr, ptr %14, align 8, !tbaa !21
  %46 = getelementptr inbounds nuw %struct.tmpi_req_, ptr %45, i32 0, i32 9
  store ptr %44, ptr %46, align 8, !tbaa !28
  %47 = load ptr, ptr %14, align 8, !tbaa !21
  %48 = load ptr, ptr %13, align 8, !tbaa !21
  %49 = getelementptr inbounds nuw %struct.tmpi_req_, ptr %48, i32 0, i32 8
  store ptr %47, ptr %49, align 8, !tbaa !23
  %50 = load ptr, ptr %14, align 8, !tbaa !21
  store ptr %50, ptr %13, align 8, !tbaa !21
  br label %51

51:                                               ; preds = %41, %35
  br label %52

52:                                               ; preds = %51, %19
  call void @llvm.lifetime.end.p0(i64 8, ptr %14) #4
  br label %53

53:                                               ; preds = %52
  %54 = load i32, ptr %11, align 4, !tbaa !11
  %55 = add nsw i32 %54, 1
  store i32 %55, ptr %11, align 4, !tbaa !11
  br label %15, !llvm.loop !37

56:                                               ; preds = %15
  br label %57

57:                                               ; preds = %75, %56
  %58 = load ptr, ptr %6, align 8, !tbaa !17
  %59 = load ptr, ptr %12, align 8, !tbaa !21
  %60 = call noundef i32 @_Z15tMPI_Test_multiP11tmpi_threadP9tmpi_req_Pi(ptr noundef %58, ptr noundef %59, ptr noundef null)
  %61 = icmp ne i32 %60, 0
  br i1 %61, label %62, label %63

62:                                               ; preds = %57
  br label %77

63:                                               ; preds = %57
  %64 = load i32, ptr %9, align 4, !tbaa !11
  %65 = icmp ne i32 %64, 0
  br i1 %65, label %66, label %68

66:                                               ; preds = %63
  %67 = load ptr, ptr %6, align 8, !tbaa !17
  call void @_Z26tMPI_Wait_process_incomingP11tmpi_thread(ptr noundef %67)
  br label %68

68:                                               ; preds = %66, %63
  br label %69

69:                                               ; preds = %68
  %70 = load i32, ptr %10, align 4, !tbaa !11
  %71 = icmp ne i32 %70, 0
  br i1 %71, label %72, label %75

72:                                               ; preds = %69
  %73 = load i32, ptr %9, align 4, !tbaa !11
  %74 = icmp ne i32 %73, 0
  br label %75

75:                                               ; preds = %72, %69
  %76 = phi i1 [ false, %69 ], [ %74, %72 ]
  br i1 %76, label %57, label %77, !llvm.loop !38

77:                                               ; preds = %75, %62
  call void @llvm.lifetime.end.p0(i64 8, ptr %13) #4
  call void @llvm.lifetime.end.p0(i64 8, ptr %12) #4
  call void @llvm.lifetime.end.p0(i64 4, ptr %11) #4
  ret void
}

; Function Attrs: mustprogress uwtable
define noundef i32 @_Z12tMPI_TestalliPP9tmpi_req_PiP12tmpi_status_(i32 noundef %0, ptr noundef %1, ptr noundef %2, ptr noundef %3) #0 {
  %5 = alloca i32, align 4
  %6 = alloca ptr, align 8
  %7 = alloca ptr, align 8
  %8 = alloca ptr, align 8
  %9 = alloca i32, align 4
  %10 = alloca i32, align 4
  %11 = alloca ptr, align 8
  %12 = alloca %struct.tMPI_Thread_key_t, align 8
  %13 = alloca ptr, align 8
  store i32 %0, ptr %5, align 4, !tbaa !11
  store ptr %1, ptr %6, align 8, !tbaa !3
  store ptr %2, ptr %7, align 8, !tbaa !33
  store ptr %3, ptr %8, align 8, !tbaa !9
  call void @llvm.lifetime.start.p0(i64 4, ptr %9) #4
  call void @llvm.lifetime.start.p0(i64 4, ptr %10) #4
  store i32 0, ptr %10, align 4, !tbaa !11
  call void @llvm.lifetime.start.p0(i64 8, ptr %11) #4
  call void @llvm.memcpy.p0.p0.i64(ptr align 8 %12, ptr align 8 @id_key, i64 72, i1 false), !tbaa.struct !13
  %14 = call noundef ptr @_Z23tMPI_Thread_getspecific17tMPI_Thread_key_t(ptr noundef byval(%struct.tMPI_Thread_key_t) align 8 %12)
  store ptr %14, ptr %11, align 8, !tbaa !17
  call void @llvm.lifetime.start.p0(i64 8, ptr %13) #4
  %15 = load ptr, ptr %11, align 8, !tbaa !17
  %16 = getelementptr inbounds nuw %struct.tmpi_thread, ptr %15, i32 0, i32 6
  store ptr %16, ptr %13, align 8, !tbaa !19
  %17 = load ptr, ptr %11, align 8, !tbaa !17
  %18 = load i32, ptr %5, align 4, !tbaa !11
  %19 = load ptr, ptr %6, align 8, !tbaa !3
  call void @_ZL19tMPI_Test_multi_reqP11tmpi_threadiPP9tmpi_req_ii(ptr noundef %17, i32 noundef %18, ptr noundef %19, i32 noundef 0, i32 noundef 1)
  %20 = load ptr, ptr %7, align 8, !tbaa !33
  %21 = icmp ne ptr %20, null
  br i1 %21, label %22, label %24

22:                                               ; preds = %4
  %23 = load ptr, ptr %7, align 8, !tbaa !33
  store i32 1, ptr %23, align 4, !tbaa !11
  br label %24

24:                                               ; preds = %22, %4
  store i32 0, ptr %9, align 4, !tbaa !11
  br label %25

25:                                               ; preds = %86, %24
  %26 = load i32, ptr %9, align 4, !tbaa !11
  %27 = load i32, ptr %5, align 4, !tbaa !11
  %28 = icmp slt i32 %26, %27
  br i1 %28, label %29, label %89

29:                                               ; preds = %25
  %30 = load ptr, ptr %6, align 8, !tbaa !3
  %31 = load i32, ptr %9, align 4, !tbaa !11
  %32 = sext i32 %31 to i64
  %33 = getelementptr inbounds ptr, ptr %30, i64 %32
  %34 = load ptr, ptr %33, align 8, !tbaa !21
  %35 = icmp ne ptr %34, null
  br i1 %35, label %36, label %79

36:                                               ; preds = %29
  %37 = load ptr, ptr %6, align 8, !tbaa !3
  %38 = load i32, ptr %9, align 4, !tbaa !11
  %39 = sext i32 %38 to i64
  %40 = getelementptr inbounds ptr, ptr %37, i64 %39
  %41 = load ptr, ptr %40, align 8, !tbaa !21
  %42 = getelementptr inbounds nuw %struct.tmpi_req_, ptr %41, i32 0, i32 0
  %43 = load i32, ptr %42, align 8, !tbaa !35
  %44 = icmp ne i32 %43, 0
  br i1 %44, label %45, label %79

45:                                               ; preds = %36
  %46 = load ptr, ptr %8, align 8, !tbaa !9
  %47 = icmp ne ptr %46, null
  br i1 %47, label %48, label %58

48:                                               ; preds = %45
  %49 = load ptr, ptr %6, align 8, !tbaa !3
  %50 = load i32, ptr %9, align 4, !tbaa !11
  %51 = sext i32 %50 to i64
  %52 = getelementptr inbounds ptr, ptr %49, i64 %51
  %53 = load ptr, ptr %52, align 8, !tbaa !21
  %54 = load ptr, ptr %8, align 8, !tbaa !9
  %55 = load i32, ptr %9, align 4, !tbaa !11
  %56 = sext i32 %55 to i64
  %57 = getelementptr inbounds %struct.tmpi_status_, ptr %54, i64 %56
  call void @_Z15tMPI_Set_statusP9tmpi_req_P12tmpi_status_(ptr noundef %53, ptr noundef %57)
  br label %58

58:                                               ; preds = %48, %45
  %59 = load ptr, ptr %6, align 8, !tbaa !3
  %60 = load i32, ptr %9, align 4, !tbaa !11
  %61 = sext i32 %60 to i64
  %62 = getelementptr inbounds ptr, ptr %59, i64 %61
  %63 = load ptr, ptr %62, align 8, !tbaa !21
  %64 = getelementptr inbounds nuw %struct.tmpi_req_, ptr %63, i32 0, i32 5
  %65 = load i32, ptr %64, align 4, !tbaa !32
  %66 = icmp ne i32 %65, 0
  br i1 %66, label %67, label %68

67:                                               ; preds = %58
  store i32 24, ptr %10, align 4, !tbaa !11
  br label %68

68:                                               ; preds = %67, %58
  %69 = load ptr, ptr %13, align 8, !tbaa !19
  %70 = load ptr, ptr %6, align 8, !tbaa !3
  %71 = load i32, ptr %9, align 4, !tbaa !11
  %72 = sext i32 %71 to i64
  %73 = getelementptr inbounds ptr, ptr %70, i64 %72
  %74 = load ptr, ptr %73, align 8, !tbaa !21
  call void @_Z15tMPI_Return_reqP8req_listP9tmpi_req_(ptr noundef %69, ptr noundef %74)
  %75 = load ptr, ptr %6, align 8, !tbaa !3
  %76 = load i32, ptr %9, align 4, !tbaa !11
  %77 = sext i32 %76 to i64
  %78 = getelementptr inbounds ptr, ptr %75, i64 %77
  store ptr null, ptr %78, align 8, !tbaa !21
  br label %85

79:                                               ; preds = %36, %29
  %80 = load ptr, ptr %7, align 8, !tbaa !33
  %81 = icmp ne ptr %80, null
  br i1 %81, label %82, label %84

82:                                               ; preds = %79
  %83 = load ptr, ptr %7, align 8, !tbaa !33
  store i32 0, ptr %83, align 4, !tbaa !11
  br label %84

84:                                               ; preds = %82, %79
  br label %85

85:                                               ; preds = %84, %68
  br label %86

86:                                               ; preds = %85
  %87 = load i32, ptr %9, align 4, !tbaa !11
  %88 = add nsw i32 %87, 1
  store i32 %88, ptr %9, align 4, !tbaa !11
  br label %25, !llvm.loop !39

89:                                               ; preds = %25
  %90 = load i32, ptr %10, align 4, !tbaa !11
  call void @llvm.lifetime.end.p0(i64 8, ptr %13) #4
  call void @llvm.lifetime.end.p0(i64 8, ptr %11) #4
  call void @llvm.lifetime.end.p0(i64 4, ptr %10) #4
  call void @llvm.lifetime.end.p0(i64 4, ptr %9) #4
  ret i32 %90
}