; Function Attrs: mustprogress uwtable
define noundef range(i32 0, 25) i32 @_Z12tMPI_TestalliPP9tmpi_req_PiP12tmpi_status_(i32 noundef %0, ptr noundef captures(none) %1, ptr noundef writeonly %2, ptr noundef %3) local_unnamed_addr #0 {
  %5 = tail call noundef ptr @_Z23tMPI_Thread_getspecific17tMPI_Thread_key_t(ptr noundef nonnull byval(%struct.tMPI_Thread_key_t) align 8 @id_key)
  %6 = getelementptr inbounds nuw i8, ptr %5, i64 360
  %7 = icmp sgt i32 %0, 0
  br i1 %7, label %.lr.ph.preheader.i, label %_ZL19tMPI_Test_multi_reqP11tmpi_threadiPP9tmpi_req_ii.exit

.lr.ph.preheader.i:                               ; preds = %4
  %wide.trip.count.i = zext nneg i32 %0 to i64
  br label %.lr.ph.i

.lr.ph.i:                                         ; preds = %16, %.lr.ph.preheader.i
  %indvars.iv.i = phi i64 [ 0, %.lr.ph.preheader.i ], [ %indvars.iv.next.i, %16 ]
  %.02333.i = phi ptr [ null, %.lr.ph.preheader.i ], [ %.1.i, %16 ]
  %.02432.i = phi ptr [ null, %.lr.ph.preheader.i ], [ %.125.i, %16 ]
  %8 = getelementptr inbounds nuw ptr, ptr %1, i64 %indvars.iv.i
  %9 = load ptr, ptr %8, align 8, !tbaa !3
  %.not27.i = icmp eq ptr %9, null
  br i1 %.not27.i, label %16, label %10

10:                                               ; preds = %.lr.ph.i
  %.not28.i = icmp eq ptr %.02432.i, null
  %spec.select.i = select i1 %.not28.i, ptr %9, ptr %.02432.i
  %.not29.i = icmp eq ptr %.02333.i, null
  %11 = getelementptr inbounds nuw i8, ptr %9, i64 56
  br i1 %.not29.i, label %12, label %13

12:                                               ; preds = %10
  tail call void @llvm.memset.p0.i64(ptr noundef nonnull align 8 dereferenceable(16) %11, i8 0, i64 16, i1 false)
  br label %16

13:                                               ; preds = %10
  store ptr null, ptr %11, align 8, !tbaa !8
  %14 = getelementptr inbounds nuw i8, ptr %9, i64 64
  store ptr %.02333.i, ptr %14, align 8, !tbaa !15
  %15 = getelementptr inbounds nuw i8, ptr %.02333.i, i64 56
  store ptr %9, ptr %15, align 8, !tbaa !8
  br label %16

16:                                               ; preds = %13, %12, %.lr.ph.i
  %.125.i = phi ptr [ %spec.select.i, %13 ], [ %spec.select.i, %12 ], [ %.02432.i, %.lr.ph.i ]
  %.1.i = phi ptr [ %9, %13 ], [ %9, %12 ], [ %.02333.i, %.lr.ph.i ]
  %indvars.iv.next.i = add nuw nsw i64 %indvars.iv.i, 1
  %exitcond.not.i = icmp eq i64 %indvars.iv.next.i, %wide.trip.count.i
  br i1 %exitcond.not.i, label %_ZL19tMPI_Test_multi_reqP11tmpi_threadiPP9tmpi_req_ii.exit, label %.lr.ph.i, !llvm.loop !22

_ZL19tMPI_Test_multi_reqP11tmpi_threadiPP9tmpi_req_ii.exit: ; preds = %16, %4
  %.024.lcssa.i = phi ptr [ null, %4 ], [ %.125.i, %16 ]
  %17 = tail call noundef i32 @_Z15tMPI_Test_multiP11tmpi_threadP9tmpi_req_Pi(ptr noundef %5, ptr noundef %.024.lcssa.i, ptr noundef null)
  %.not = icmp eq ptr %2, null
  br i1 %.not, label %19, label %18

18:                                               ; preds = %_ZL19tMPI_Test_multi_reqP11tmpi_threadiPP9tmpi_req_ii.exit
  store i32 1, ptr %2, align 4, !tbaa !20
  br label %19

19:                                               ; preds = %18, %_ZL19tMPI_Test_multi_reqP11tmpi_threadiPP9tmpi_req_ii.exit
  br i1 %7, label %.lr.ph, label %._crit_edge

.lr.ph:                                           ; preds = %19
  %.not34 = icmp eq ptr %3, null
  %wide.trip.count65 = zext nneg i32 %0 to i64
  br i1 %.not34, label %.lr.ph.split.us, label %.lr.ph.split

.lr.ph.split.us:                                  ; preds = %.lr.ph
  br i1 %.not, label %.lr.ph.split.us.split.us, label %.lr.ph.split.us.split

.lr.ph.split.us.split.us:                         ; preds = %.lr.ph.split.us, %27
  %indvars.iv62 = phi i64 [ %indvars.iv.next63, %27 ], [ 0, %.lr.ph.split.us ]
  %.02736.us.us = phi i32 [ %.2.us.us, %27 ], [ 0, %.lr.ph.split.us ]
  %20 = getelementptr inbounds nuw ptr, ptr %1, i64 %indvars.iv62
  %21 = load ptr, ptr %20, align 8, !tbaa !3
  %.not32.us.us = icmp eq ptr %21, null
  br i1 %.not32.us.us, label %27, label %22

22:                                               ; preds = %.lr.ph.split.us.split.us
  %23 = load i32, ptr %21, align 8, !tbaa !21
  %.not33.us.us = icmp eq i32 %23, 0
  br i1 %.not33.us.us, label %27, label %24

24:                                               ; preds = %22
  %25 = getelementptr inbounds nuw i8, ptr %21, i64 36
  %26 = load i32, ptr %25, align 4, !tbaa !19
  %.not35.us.us = icmp eq i32 %26, 0
  %spec.select.us.us = select i1 %.not35.us.us, i32 %.02736.us.us, i32 24
  tail call void @_Z15tMPI_Return_reqP8req_listP9tmpi_req_(ptr noundef nonnull %6, ptr noundef nonnull %21)
  store ptr null, ptr %20, align 8, !tbaa !3
  br label %27

27:                                               ; preds = %.lr.ph.split.us.split.us, %22, %24
  %.2.us.us = phi i32 [ %spec.select.us.us, %24 ], [ %.02736.us.us, %22 ], [ %.02736.us.us, %.lr.ph.split.us.split.us ]
  %indvars.iv.next63 = add nuw nsw i64 %indvars.iv62, 1
  %exitcond66.not = icmp eq i64 %indvars.iv.next63, %wide.trip.count65
  br i1 %exitcond66.not, label %._crit_edge, label %.lr.ph.split.us.split.us, !llvm.loop !24

.lr.ph.split.us.split:                            ; preds = %.lr.ph.split.us, %36
  %indvars.iv57 = phi i64 [ %indvars.iv.next58, %36 ], [ 0, %.lr.ph.split.us ]
  %.02736.us = phi i32 [ %.2.us, %36 ], [ 0, %.lr.ph.split.us ]
  %28 = getelementptr inbounds nuw ptr, ptr %1, i64 %indvars.iv57
  %29 = load ptr, ptr %28, align 8, !tbaa !3
  %.not32.us = icmp eq ptr %29, null
  br i1 %.not32.us, label %35, label %30

30:                                               ; preds = %.lr.ph.split.us.split
  %31 = load i32, ptr %29, align 8, !tbaa !21
  %.not33.us = icmp eq i32 %31, 0
  br i1 %.not33.us, label %35, label %32

32:                                               ; preds = %30
  %33 = getelementptr inbounds nuw i8, ptr %29, i64 36
  %34 = load i32, ptr %33, align 4, !tbaa !19
  %.not35.us = icmp eq i32 %34, 0
  %spec.select.us = select i1 %.not35.us, i32 %.02736.us, i32 24
  tail call void @_Z15tMPI_Return_reqP8req_listP9tmpi_req_(ptr noundef nonnull %6, ptr noundef nonnull %29)
  store ptr null, ptr %28, align 8, !tbaa !3
  br label %36

35:                                               ; preds = %30, %.lr.ph.split.us.split
  store i32 0, ptr %2, align 4, !tbaa !20
  br label %36

36:                                               ; preds = %35, %32
  %.2.us = phi i32 [ %spec.select.us, %32 ], [ %.02736.us, %35 ]
  %indvars.iv.next58 = add nuw nsw i64 %indvars.iv57, 1
  %exitcond61.not = icmp eq i64 %indvars.iv.next58, %wide.trip.count65
  br i1 %exitcond61.not, label %._crit_edge, label %.lr.ph.split.us.split, !llvm.loop !24

.lr.ph.split:                                     ; preds = %.lr.ph
  br i1 %.not, label %.lr.ph.split.split.us, label %.lr.ph.split.split

.lr.ph.split.split.us:                            ; preds = %.lr.ph.split, %46
  %indvars.iv52 = phi i64 [ %indvars.iv.next53, %46 ], [ 0, %.lr.ph.split ]
  %.02736.us39 = phi i32 [ %.2.us44, %46 ], [ 0, %.lr.ph.split ]
  %37 = getelementptr inbounds nuw ptr, ptr %1, i64 %indvars.iv52
  %38 = load ptr, ptr %37, align 8, !tbaa !3
  %.not32.us40 = icmp eq ptr %38, null
  br i1 %.not32.us40, label %46, label %39

39:                                               ; preds = %.lr.ph.split.split.us
  %40 = load i32, ptr %38, align 8, !tbaa !21
  %.not33.us41 = icmp eq i32 %40, 0
  br i1 %.not33.us41, label %46, label %41

41:                                               ; preds = %39
  %42 = getelementptr inbounds nuw %struct.tmpi_status_, ptr %3, i64 %indvars.iv52
  tail call void @_Z15tMPI_Set_statusP9tmpi_req_P12tmpi_status_(ptr noundef nonnull %38, ptr noundef nonnull %42)
  %43 = load ptr, ptr %37, align 8, !tbaa !3
  %44 = getelementptr inbounds nuw i8, ptr %43, i64 36
  %45 = load i32, ptr %44, align 4, !tbaa !19
  %.not35.us42 = icmp eq i32 %45, 0
  %spec.select.us43 = select i1 %.not35.us42, i32 %.02736.us39, i32 24
  tail call void @_Z15tMPI_Return_reqP8req_listP9tmpi_req_(ptr noundef nonnull %6, ptr noundef %43)
  store ptr null, ptr %37, align 8, !tbaa !3
  br label %46

46:                                               ; preds = %.lr.ph.split.split.us, %39, %41
  %.2.us44 = phi i32 [ %spec.select.us43, %41 ], [ %.02736.us39, %39 ], [ %.02736.us39, %.lr.ph.split.split.us ]
  %indvars.iv.next53 = add nuw nsw i64 %indvars.iv52, 1
  %exitcond56.not = icmp eq i64 %indvars.iv.next53, %wide.trip.count65
  br i1 %exitcond56.not, label %._crit_edge, label %.lr.ph.split.split.us, !llvm.loop !24

.lr.ph.split.split:                               ; preds = %.lr.ph.split, %57
  %indvars.iv = phi i64 [ %indvars.iv.next, %57 ], [ 0, %.lr.ph.split ]
  %.02736 = phi i32 [ %.2, %57 ], [ 0, %.lr.ph.split ]
  %47 = getelementptr inbounds nuw ptr, ptr %1, i64 %indvars.iv
  %48 = load ptr, ptr %47, align 8, !tbaa !3
  %.not32 = icmp eq ptr %48, null
  br i1 %.not32, label %56, label %49

49:                                               ; preds = %.lr.ph.split.split
  %50 = load i32, ptr %48, align 8, !tbaa !21
  %.not33 = icmp eq i32 %50, 0
  br i1 %.not33, label %56, label %51

51:                                               ; preds = %49
  %52 = getelementptr inbounds nuw %struct.tmpi_status_, ptr %3, i64 %indvars.iv
  tail call void @_Z15tMPI_Set_statusP9tmpi_req_P12tmpi_status_(ptr noundef nonnull %48, ptr noundef nonnull %52)
  %53 = load ptr, ptr %47, align 8, !tbaa !3
  %54 = getelementptr inbounds nuw i8, ptr %53, i64 36
  %55 = load i32, ptr %54, align 4, !tbaa !19
  %.not35 = icmp eq i32 %55, 0
  %spec.select = select i1 %.not35, i32 %.02736, i32 24
  tail call void @_Z15tMPI_Return_reqP8req_listP9tmpi_req_(ptr noundef nonnull %6, ptr noundef %53)
  store ptr null, ptr %47, align 8, !tbaa !3
  br label %57

56:                                               ; preds = %49, %.lr.ph.split.split
  store i32 0, ptr %2, align 4, !tbaa !20
  br label %57

57:                                               ; preds = %51, %56
  %.2 = phi i32 [ %spec.select, %51 ], [ %.02736, %56 ]
  %indvars.iv.next = add nuw nsw i64 %indvars.iv, 1
  %exitcond.not = icmp eq i64 %indvars.iv.next, %wide.trip.count65
  br i1 %exitcond.not, label %._crit_edge, label %.lr.ph.split.split, !llvm.loop !24

._crit_edge:                                      ; preds = %57, %46, %36, %27, %19
  %.027.lcssa = phi i32 [ 0, %19 ], [ %.2.us.us, %27 ], [ %.2.us, %36 ], [ %.2.us44, %46 ], [ %.2, %57 ]
  ret i32 %.027.lcssa
}